target datalayout = "e-m:e-p270:32:32-p271:32:32-p272:64:64-i64:64-i128:128-f80:128-n8:16:32:64-S128"
target triple = "x86_64-pc-linux-gnu"

@recoveryTarget = dso_local global i32 0, align 4
@recoveryTargetLSN = dso_local global i64 0, align 8
@.str.70 = private unnamed_addr constant [1 x i8] zeroinitializer, align 1

; Function Attrs: nounwind uwtable
define dso_local void @assign_recovery_target_lsn(ptr noundef %0, ptr noundef %1) #0 {
  %3 = alloca ptr, align 8
  %4 = alloca ptr, align 8
  store ptr %0, ptr %3, align 8
  store ptr %1, ptr %4, align 8
  %5 = load i32, ptr @recoveryTarget, align 4
  %6 = icmp ne i32 %5, 0
  br i1 %6, label %7, label %11

7:                                                ; preds = %2
  %8 = load i32, ptr @recoveryTarget, align 4
  %9 = icmp ne i32 %8, 4
  br i1 %9, label %10, label %11

10:                                               ; preds = %7
  call void @error_multiple_recovery_targets() #18
  unreachable

11:                                               ; preds = %7, %2
  %12 = load ptr, ptr %3, align 8
  %13 = icmp ne ptr %12, null
  br i1 %13, label %14, label %21

14:                                               ; preds = %11
  %15 = load ptr, ptr %3, align 8
  %16 = call i32 @strcmp(ptr noundef %15, ptr noundef @.str.70) #16
  %17 = icmp ne i32 %16, 0
  br i1 %17, label %18, label %21

18:                                               ; preds = %14
  store i32 4, ptr @recoveryTarget, align 4
  %19 = load ptr, ptr %4, align 8
  %20 = load i64, ptr %19, align 8
  store i64 %20, ptr @recoveryTargetLSN, align 8
  br label %22

21:                                               ; preds = %14, %11
  store i32 0, ptr @recoveryTarget, align 4
  br label %22

22:                                               ; preds = %21, %18
  ret void
}