; Function Attrs: nounwind uwtable
define dso_local void @assign_recovery_target_lsn(ptr noundef readonly captures(address_is_null) %0, ptr noundef readonly captures(none) %1) local_unnamed_addr #2 {
  %3 = load i32, ptr @recoveryTarget, align 4
  %4 = and i32 %3, -5
  %or.cond.not = icmp eq i32 %4, 0
  br i1 %or.cond.not, label %6, label %5

5:                                                ; preds = %2
  tail call fastcc void @error_multiple_recovery_targets() #28
  unreachable

6:                                                ; preds = %2
  %.not = icmp eq ptr %0, null
  br i1 %.not, label %10, label %7

7:                                                ; preds = %6
  %strcmpload = load i8, ptr %0, align 1
  %.not4 = icmp eq i8 %strcmpload, 0
  br i1 %.not4, label %10, label %8

8:                                                ; preds = %7
  store i32 4, ptr @recoveryTarget, align 4
  %9 = load i64, ptr %1, align 8
  store i64 %9, ptr @recoveryTargetLSN, align 8
  br label %11

10:                                               ; preds = %7, %6
  store i32 0, ptr @recoveryTarget, align 4
  br label %11

11:                                               ; preds = %10, %8
  ret void
}